; Function Attrs: mustprogress nofree norecurse nosync nounwind willreturn memory(argmem: read) uwtable
define noundef i64 @_ZNK18OpenImageIO_v2_6_09ImageSpec11tile_pixelsEv(ptr nocapture noundef nonnull readonly align 8 dereferenceable(160) %this) local_unnamed_addr #11 align 2 personality ptr @__gxx_personality_v0 {
entry:
  %tile_width = getelementptr inbounds i8, ptr %this, i64 48
  %0 = load i32, ptr %tile_width, align 8
  %cmp = icmp slt i32 %0, 1
  br i1 %cmp, label %return, label %lor.lhs.false

lor.lhs.false:                                    ; preds = %entry
  %tile_height = getelementptr inbounds i8, ptr %this, i64 52
  %1 = load i32, ptr %tile_height, align 4
  %cmp2 = icmp slt i32 %1, 1
  br i1 %cmp2, label %return, label %lor.lhs.false3

lor.lhs.false3:                                   ; preds = %lor.lhs.false
  %tile_depth = getelementptr inbounds i8, ptr %this, i64 56
  %2 = load i32, ptr %tile_depth, align 8
  %cmp4 = icmp slt i32 %2, 1
  br i1 %cmp4, label %return, label %if.end

if.end:                                           ; preds = %lor.lhs.false3
  %conv = zext nneg i32 %0 to i64
  %conv7 = zext nneg i32 %1 to i64
  %mul5.i10 = mul nuw nsw i64 %conv7, %conv
  %cmp9.not = icmp eq i32 %2, 1
  br i1 %cmp9.not, label %return, label %if.then10

if.then10:                                        ; preds = %if.end
  %conv12 = zext nneg i32 %2 to i64
  %mul5.i4 = tail call { i64, i1 } @llvm.umul.with.overflow.i64(i64 %conv12, i64 %mul5.i10)
  %mul.val.i5 = extractvalue { i64, i1 } %mul5.i4, 0
  %mul.ov.i7 = extractvalue { i64, i1 } %mul5.i4, 1
  %spec.select.i8 = select i1 %mul.ov.i7, i64 -1, i64 %mul.val.i5
  br label %return

return:                                           ; preds = %if.end, %if.then10, %entry, %lor.lhs.false, %lor.lhs.false3
  %retval.0 = phi i64 [ 0, %lor.lhs.false3 ], [ 0, %lor.lhs.false ], [ 0, %entry ], [ %spec.select.i8, %if.then10 ], [ %mul5.i10, %if.end ]
  ret i64 %retval.0
}